; Function Attrs: mustprogress nounwind uwtable
define void @_ZN2cv5flann5IndexD2Ev(ptr noundef nonnull align 8 dereferenceable(128) initializes((0, 8)) %0) unnamed_addr #3 align 2 personality ptr @__gxx_personality_v0 {
  store ptr getelementptr inbounds nuw inrange(-16, 64) (i8, ptr @_ZTVN2cv5flann5IndexE, i64 16), ptr %0, align 8, !tbaa !35
  invoke void @_ZN2cv5flann5Index7releaseEv(ptr noundef nonnull align 8 dereferenceable(128) %0)
          to label %2 unwind label %4

2:                                                ; preds = %1
  %3 = getelementptr inbounds nuw i8, ptr %0, i64 32
  tail call void @_ZN2cv3MatD1Ev(ptr noundef nonnull align 8 dereferenceable(96) %3) #34
  ret void

4:                                                ; preds = %1
  %5 = landingpad { ptr, i32 }
          catch ptr null
  %6 = extractvalue { ptr, i32 } %5, 0
  tail call void @__clang_call_terminate(ptr %6) #32
  unreachable
}